target datalayout = "e-m:e-p270:32:32-p271:32:32-p272:64:64-i64:64-i128:128-f80:128-n8:16:32:64-S128"
target triple = "x86_64-pc-linux-gnu"

%struct.zstream = type { i64, i64, i64, i64, %struct.z_stream_s, ptr }
%struct.z_stream_s = type { ptr, i32, i64, ptr, i32, i64, ptr, ptr, ptr, ptr, ptr, i32, i64, i64 }
%struct.gzfile = type { %struct.zstream, i64, i32, i32, i64, i64, i64, i64, i32, i32, i64, ptr, ptr, ptr, ptr, i64, i64 }
%struct.RString = type { %struct.RBasic, i64, %union.anon }
%struct.RBasic = type { i64, i64 }
%union.anon = type { %struct.anon }
%struct.anon = type { ptr, %union.anon.0 }
%union.anon.0 = type { i64 }
%struct.zstream_run_args = type { ptr, ptr, i64, i32, i32, i32, i32 }

@id_write = internal global i64 0, align 8
@id_flush = internal global i64 0, align 8

; Function Attrs: inlinehint nounwind sspstrong willreturn memory(read) uwtable
define internal i64 @RSTRING_LEN(i64 noundef %0) #6 {
  %2 = alloca i64, align 8
  store i64 %0, ptr %2, align 8, !tbaa !6
  %3 = load i64, ptr %2, align 8, !tbaa !6
  %4 = inttoptr i64 %3 to ptr
  %5 = getelementptr inbounds nuw %struct.RString, ptr %4, i32 0, i32 1
  %6 = load i64, ptr %5, align 8, !tbaa !88
  ret i64 %6
}

; Function Attrs: inlinehint nounwind sspstrong willreturn memory(none) uwtable
define internal zeroext i1 @RB_NIL_P(i64 noundef %0) #5 {
  %2 = alloca i64, align 8
  store i64 %0, ptr %2, align 8, !tbaa !6
  %3 = load i64, ptr %2, align 8, !tbaa !6
  %4 = icmp eq i64 %3, 4
  ret i1 %4
}

; Function Attrs: nounwind sspstrong uwtable
define internal void @gzfile_write_raw(ptr noundef %0) #0 {
  %2 = alloca ptr, align 8
  %3 = alloca i64, align 8
  store ptr %0, ptr %2, align 8, !tbaa !57
  call void @llvm.lifetime.start.p0(i64 8, ptr %3) #23
  %4 = load ptr, ptr %2, align 8, !tbaa !57
  %5 = getelementptr inbounds nuw %struct.gzfile, ptr %4, i32 0, i32 0
  %6 = getelementptr inbounds nuw %struct.zstream, ptr %5, i32 0, i32 1
  %7 = load i64, ptr %6, align 8, !tbaa !60
  %8 = call zeroext i1 @RB_NIL_P(i64 noundef %7) #24
  br i1 %8, label %9, label %10

9:                                                ; preds = %1
  br label %16

10:                                               ; preds = %1
  %11 = load ptr, ptr %2, align 8, !tbaa !57
  %12 = getelementptr inbounds nuw %struct.gzfile, ptr %11, i32 0, i32 0
  %13 = getelementptr inbounds nuw %struct.zstream, ptr %12, i32 0, i32 1
  %14 = load i64, ptr %13, align 8, !tbaa !60
  %15 = call i64 @RSTRING_LEN(i64 noundef %14) #25
  br label %16

16:                                               ; preds = %10, %9
  %17 = phi i64 [ 0, %9 ], [ %15, %10 ]
  %18 = icmp sgt i64 %17, 0
  br i1 %18, label %19, label %49

19:                                               ; preds = %16
  %20 = load ptr, ptr %2, align 8, !tbaa !57
  %21 = getelementptr inbounds nuw %struct.gzfile, ptr %20, i32 0, i32 0
  %22 = call i64 @zstream_detach_buffer(ptr noundef %21)
  store i64 %22, ptr %3, align 8, !tbaa !6
  %23 = load ptr, ptr %2, align 8, !tbaa !57
  %24 = getelementptr inbounds nuw %struct.gzfile, ptr %23, i32 0, i32 1
  %25 = load i64, ptr %24, align 8, !tbaa !46
  %26 = load i64, ptr @id_write, align 8, !tbaa !6
  %27 = load i64, ptr %3, align 8, !tbaa !6
  %28 = call i64 (i64, i64, i32, ...) @rb_funcall(i64 noundef %25, i64 noundef %26, i32 noundef 1, i64 noundef %27)
  %29 = load ptr, ptr %2, align 8, !tbaa !57
  %30 = getelementptr inbounds nuw %struct.gzfile, ptr %29, i32 0, i32 0
  %31 = getelementptr inbounds nuw %struct.zstream, ptr %30, i32 0, i32 0
  %32 = load i64, ptr %31, align 8, !tbaa !59
  %33 = and i64 %32, 128
  %34 = icmp ne i64 %33, 0
  br i1 %34, label %35, label %48

35:                                               ; preds = %19
  %36 = load ptr, ptr %2, align 8, !tbaa !57
  %37 = getelementptr inbounds nuw %struct.gzfile, ptr %36, i32 0, i32 1
  %38 = load i64, ptr %37, align 8, !tbaa !46
  %39 = load i64, ptr @id_flush, align 8, !tbaa !6
  %40 = call i32 @rb_respond_to(i64 noundef %38, i64 noundef %39)
  %41 = icmp ne i32 %40, 0
  br i1 %41, label %42, label %48

42:                                               ; preds = %35
  %43 = load ptr, ptr %2, align 8, !tbaa !57
  %44 = getelementptr inbounds nuw %struct.gzfile, ptr %43, i32 0, i32 1
  %45 = load i64, ptr %44, align 8, !tbaa !46
  %46 = load i64, ptr @id_flush, align 8, !tbaa !6
  %47 = call i64 (i64, i64, i32, ...) @rb_funcall(i64 noundef %45, i64 noundef %46, i32 noundef 0)
  br label %48

48:                                               ; preds = %42, %35, %19
  br label %49

49:                                               ; preds = %48, %16
  call void @llvm.lifetime.end.p0(i64 8, ptr %3) #23
  ret void
}

; Function Attrs: nounwind sspstrong uwtable
define internal void @zstream_run(ptr noundef %0, ptr noundef %1, i64 noundef %2, i32 noundef %3) #0 {
  %5 = alloca ptr, align 8
  %6 = alloca ptr, align 8
  %7 = alloca i64, align 8
  %8 = alloca i32, align 4
  %9 = alloca %struct.zstream_run_args, align 8
  store ptr %0, ptr %5, align 8, !tbaa !21
  store ptr %1, ptr %6, align 8, !tbaa !19
  store i64 %2, ptr %7, align 8, !tbaa !6
  store i32 %3, ptr %8, align 4, !tbaa !10
  call void @llvm.lifetime.start.p0(i64 40, ptr %9) #23
  %10 = getelementptr inbounds nuw %struct.zstream_run_args, ptr %9, i32 0, i32 0
  %11 = load ptr, ptr %5, align 8, !tbaa !21
  store ptr %11, ptr %10, align 8, !tbaa !99
  %12 = getelementptr inbounds nuw %struct.zstream_run_args, ptr %9, i32 0, i32 1
  %13 = load ptr, ptr %6, align 8, !tbaa !19
  store ptr %13, ptr %12, align 8, !tbaa !101
  %14 = getelementptr inbounds nuw %struct.zstream_run_args, ptr %9, i32 0, i32 2
  %15 = load i64, ptr %7, align 8, !tbaa !6
  store i64 %15, ptr %14, align 8, !tbaa !102
  %16 = getelementptr inbounds nuw %struct.zstream_run_args, ptr %9, i32 0, i32 3
  %17 = load i32, ptr %8, align 4, !tbaa !10
  store i32 %17, ptr %16, align 8, !tbaa !103
  %18 = getelementptr inbounds nuw %struct.zstream_run_args, ptr %9, i32 0, i32 4
  store i32 0, ptr %18, align 4, !tbaa !104
  %19 = getelementptr inbounds nuw %struct.zstream_run_args, ptr %9, i32 0, i32 5
  store i32 0, ptr %19, align 8, !tbaa !105
  %20 = getelementptr inbounds nuw %struct.zstream_run_args, ptr %9, i32 0, i32 6
  %21 = load ptr, ptr %5, align 8, !tbaa !21
  %22 = getelementptr inbounds nuw %struct.zstream, ptr %21, i32 0, i32 0
  %23 = load i64, ptr %22, align 8, !tbaa !33
  %24 = and i64 %23, 16
  %25 = icmp ne i64 %24, 0
  br i1 %25, label %29, label %26

26:                                               ; preds = %4
  %27 = call i32 @rb_block_given_p()
  %28 = icmp ne i32 %27, 0
  br label %29

29:                                               ; preds = %26, %4
  %30 = phi i1 [ false, %4 ], [ %28, %26 ]
  %31 = zext i1 %30 to i32
  store i32 %31, ptr %20, align 4, !tbaa !106
  %32 = ptrtoint ptr %9 to i64
  %33 = ptrtoint ptr %9 to i64
  %34 = call i64 @rb_ensure(ptr noundef @zstream_run_try, i64 noundef %32, ptr noundef @zstream_run_ensure, i64 noundef %33)
  %35 = getelementptr inbounds nuw %struct.zstream_run_args, ptr %9, i32 0, i32 5
  %36 = load i32, ptr %35, align 8, !tbaa !105
  %37 = icmp ne i32 %36, 0
  br i1 %37, label %38, label %41

38:                                               ; preds = %29
  %39 = getelementptr inbounds nuw %struct.zstream_run_args, ptr %9, i32 0, i32 5
  %40 = load i32, ptr %39, align 8, !tbaa !105
  call void @rb_jump_tag(i32 noundef %40) #26
  unreachable

41:                                               ; preds = %29
  call void @llvm.lifetime.end.p0(i64 40, ptr %9) #23
  ret void
}

; Function Attrs: nounwind sspstrong uwtable
define internal void @gzfile_write(ptr noundef %0, ptr noundef %1, i64 noundef %2) #0 {
  %4 = alloca ptr, align 8
  %5 = alloca ptr, align 8
  %6 = alloca i64, align 8
  store ptr %0, ptr %4, align 8, !tbaa !57
  store ptr %1, ptr %5, align 8, !tbaa !19
  store i64 %2, ptr %6, align 8, !tbaa !6
  %7 = load ptr, ptr %4, align 8, !tbaa !57
  %8 = getelementptr inbounds nuw %struct.gzfile, ptr %7, i32 0, i32 0
  %9 = getelementptr inbounds nuw %struct.zstream, ptr %8, i32 0, i32 0
  %10 = load i64, ptr %9, align 8, !tbaa !59
  %11 = and i64 %10, 256
  %12 = icmp ne i64 %11, 0
  br i1 %12, label %15, label %13

13:                                               ; preds = %3
  %14 = load ptr, ptr %4, align 8, !tbaa !57
  call void @gzfile_make_header(ptr noundef %14)
  br label %15

15:                                               ; preds = %13, %3
  %16 = load i64, ptr %6, align 8, !tbaa !6
  %17 = icmp sgt i64 %16, 0
  br i1 %17, label %25, label %18

18:                                               ; preds = %15
  %19 = load ptr, ptr %4, align 8, !tbaa !57
  %20 = getelementptr inbounds nuw %struct.gzfile, ptr %19, i32 0, i32 0
  %21 = getelementptr inbounds nuw %struct.zstream, ptr %20, i32 0, i32 0
  %22 = load i64, ptr %21, align 8, !tbaa !59
  %23 = and i64 %22, 128
  %24 = icmp ne i64 %23, 0
  br i1 %24, label %25, label %46

25:                                               ; preds = %18, %15
  %26 = load ptr, ptr %4, align 8, !tbaa !57
  %27 = getelementptr inbounds nuw %struct.gzfile, ptr %26, i32 0, i32 7
  %28 = load i64, ptr %27, align 8, !tbaa !50
  %29 = and i64 %28, 4294967295
  %30 = load ptr, ptr %5, align 8, !tbaa !19
  %31 = load i64, ptr %6, align 8, !tbaa !6
  %32 = call i64 @crc32_z(i64 noundef %29, ptr noundef %30, i64 noundef %31)
  %33 = load ptr, ptr %4, align 8, !tbaa !57
  %34 = getelementptr inbounds nuw %struct.gzfile, ptr %33, i32 0, i32 7
  store i64 %32, ptr %34, align 8, !tbaa !50
  %35 = load ptr, ptr %4, align 8, !tbaa !57
  %36 = getelementptr inbounds nuw %struct.gzfile, ptr %35, i32 0, i32 0
  %37 = load ptr, ptr %5, align 8, !tbaa !19
  %38 = load i64, ptr %6, align 8, !tbaa !6
  %39 = load ptr, ptr %4, align 8, !tbaa !57
  %40 = getelementptr inbounds nuw %struct.gzfile, ptr %39, i32 0, i32 0
  %41 = getelementptr inbounds nuw %struct.zstream, ptr %40, i32 0, i32 0
  %42 = load i64, ptr %41, align 8, !tbaa !59
  %43 = and i64 %42, 128
  %44 = icmp ne i64 %43, 0
  %45 = select i1 %44, i32 2, i32 0
  call void @zstream_run(ptr noundef %36, ptr noundef %37, i64 noundef %38, i32 noundef %45)
  br label %46

46:                                               ; preds = %25, %18
  %47 = load ptr, ptr %4, align 8, !tbaa !57
  call void @gzfile_write_raw(ptr noundef %47)
  ret void
}