; Function Attrs: nounwind sspstrong uwtable
define internal fastcc void @gzfile_write(ptr noundef %0, ptr noundef %1, i64 noundef %2) unnamed_addr #0 {
  %4 = alloca %struct.zstream_run_args, align 8
  %5 = load i64, ptr %0, align 8, !tbaa !113
  %6 = and i64 %5, 256
  %.not = icmp eq i64 %6, 0
  br i1 %.not, label %7, label %8

7:                                                ; preds = %3
  tail call fastcc void @gzfile_make_header(ptr noundef nonnull %0)
  br label %8

8:                                                ; preds = %7, %3
  %9 = icmp sgt i64 %2, 0
  br i1 %9, label %13, label %10

10:                                               ; preds = %8
  %11 = load i64, ptr %0, align 8, !tbaa !113
  %12 = and i64 %11, 128
  %.not12 = icmp eq i64 %12, 0
  br i1 %.not12, label %39, label %13

13:                                               ; preds = %10, %8
  %14 = getelementptr inbounds nuw i8, ptr %0, i64 192
  %15 = load i64, ptr %14, align 8, !tbaa !118
  %16 = and i64 %15, 4294967295
  %17 = tail call i64 @crc32_z(i64 noundef %16, ptr noundef %1, i64 noundef %2) #18
  store i64 %17, ptr %14, align 8, !tbaa !118
  %18 = load i64, ptr %0, align 8, !tbaa !113
  %19 = trunc i64 %18 to i32
  %20 = lshr i32 %19, 6
  %21 = and i32 %20, 2
  call void @llvm.lifetime.start.p0(i64 40, ptr nonnull %4) #18
  store ptr %0, ptr %4, align 8, !tbaa !61
  %22 = getelementptr inbounds nuw i8, ptr %4, i64 8
  store ptr %1, ptr %22, align 8, !tbaa !64
  %23 = getelementptr inbounds nuw i8, ptr %4, i64 16
  store i64 %2, ptr %23, align 8, !tbaa !65
  %24 = getelementptr inbounds nuw i8, ptr %4, i64 24
  store i32 %21, ptr %24, align 8, !tbaa !66
  %25 = getelementptr inbounds nuw i8, ptr %4, i64 28
  store i32 0, ptr %25, align 4, !tbaa !67
  %26 = getelementptr inbounds nuw i8, ptr %4, i64 32
  store i32 0, ptr %26, align 8, !tbaa !68
  %27 = getelementptr inbounds nuw i8, ptr %4, i64 36
  %28 = and i64 %18, 16
  %.not.i = icmp eq i64 %28, 0
  br i1 %.not.i, label %29, label %33

29:                                               ; preds = %13
  %30 = tail call i32 @rb_block_given_p() #18
  %31 = icmp ne i32 %30, 0
  %32 = zext i1 %31 to i32
  br label %33

33:                                               ; preds = %29, %13
  %34 = phi i32 [ 0, %13 ], [ %32, %29 ]
  store i32 %34, ptr %27, align 4, !tbaa !69
  %35 = ptrtoint ptr %4 to i64
  %36 = call i64 @rb_ensure(ptr noundef nonnull @zstream_run_try, i64 noundef %35, ptr noundef nonnull @zstream_run_ensure, i64 noundef %35) #18
  %37 = load i32, ptr %26, align 8, !tbaa !68
  %.not4.i = icmp eq i32 %37, 0
  br i1 %.not4.i, label %zstream_run.exit, label %38

38:                                               ; preds = %33
  call void @rb_jump_tag(i32 noundef %37) #19
  unreachable

zstream_run.exit:                                 ; preds = %33
  call void @llvm.lifetime.end.p0(i64 40, ptr nonnull %4) #18
  br label %39

39:                                               ; preds = %zstream_run.exit, %10
  %40 = getelementptr inbounds nuw i8, ptr %0, i64 8
  %41 = load i64, ptr %40, align 8, !tbaa !132
  %42 = icmp eq i64 %41, 4
  br i1 %42, label %gzfile_write_raw.exit, label %43

43:                                               ; preds = %39
  %44 = inttoptr i64 %41 to ptr
  %45 = getelementptr inbounds nuw i8, ptr %44, i64 16
  %46 = load i64, ptr %45, align 8, !tbaa !21
  %47 = icmp sgt i64 %46, 0
  br i1 %47, label %48, label %gzfile_write_raw.exit

48:                                               ; preds = %43
  %49 = call fastcc i64 @zstream_detach_buffer(ptr noundef nonnull %0)
  %50 = getelementptr inbounds nuw i8, ptr %0, i64 152
  %51 = load i64, ptr %50, align 8, !tbaa !117
  %52 = load i64, ptr @id_write, align 8, !tbaa !6
  %53 = call i64 (i64, i64, i32, ...) @rb_funcall(i64 noundef %51, i64 noundef %52, i32 noundef 1, i64 noundef %49) #18
  %54 = load i64, ptr %0, align 8, !tbaa !113
  %55 = and i64 %54, 128
  %.not.i14 = icmp eq i64 %55, 0
  br i1 %.not.i14, label %gzfile_write_raw.exit, label %56

56:                                               ; preds = %48
  %57 = load i64, ptr %50, align 8, !tbaa !117
  %58 = load i64, ptr @id_flush, align 8, !tbaa !6
  %59 = call i32 @rb_respond_to(i64 noundef %57, i64 noundef %58) #18
  %.not7.i = icmp eq i32 %59, 0
  br i1 %.not7.i, label %gzfile_write_raw.exit, label %60

60:                                               ; preds = %56
  %61 = load i64, ptr %50, align 8, !tbaa !117
  %62 = load i64, ptr @id_flush, align 8, !tbaa !6
  %63 = call i64 (i64, i64, i32, ...) @rb_funcall(i64 noundef %61, i64 noundef %62, i32 noundef 0) #18
  br label %gzfile_write_raw.exit

gzfile_write_raw.exit:                            ; preds = %39, %43, %48, %56, %60
  ret void
}